target datalayout = "e-m:e-p270:32:32-p271:32:32-p272:64:64-i64:64-i128:128-f80:128-n8:16:32:64-S128"
target triple = "x86_64-pc-linux-gnu"

%struct.ssl_connection_st = type { %struct.ssl_st, ptr, i32, ptr, ptr, ptr, i32, ptr, i32, i32, i32, i32, %struct.OSSL_TIME, %struct.OSSL_TIME, %struct.ossl_statem_st, i32, ptr, ptr, i64, i64, i64, %struct.ossl_quic_tls_callbacks_st, ptr, ptr, %struct.anon, ptr, ptr, ptr, i32, ptr, %struct.ssl_dane_st, ptr, ptr, ptr, ptr, i32, [64 x i8], [64 x i8], [64 x i8], [64 x i8], [64 x i8], [64 x i8], [64 x i8], [64 x i8], [64 x i8], [64 x i8], [64 x i8], [64 x i8], ptr, [64 x i8], i64, i32, i64, [32 x i8], ptr, ptr, ptr, i64, ptr, [32 x i8], i64, i32, ptr, ptr, i32, i32, ptr, ptr, ptr, ptr, ptr, i64, ptr, ptr, i64, i32, i32, i32, i64, i32, i32, i64, i64, i64, %struct.anon.1, ptr, i32, ptr, ptr, ptr, i32, ptr, ptr, ptr, i32, i32, i32, i32, ptr, i64, i32, ptr, %struct.srp_ctx_st, ptr, %struct.record_layer_st, ptr, ptr, ptr, ptr, i64, i32, i32, i32, i64, i64, i64, ptr, ptr, ptr, ptr, ptr, i64, ptr, i64, ptr, i64 }
%struct.ssl_st = type { i32, ptr, ptr, ptr, %struct.CRYPTO_REF_COUNT, ptr, %struct.crypto_ex_data_st }
%struct.CRYPTO_REF_COUNT = type { i32 }
%struct.crypto_ex_data_st = type { ptr, ptr }
%struct.OSSL_TIME = type { i64 }
%struct.ossl_statem_st = type { i32, i32, i32, i32, i32, i32, i32, i32, i32, i32, i32, i32, i32, ptr, ptr, ptr, i8 }
%struct.ossl_quic_tls_callbacks_st = type { ptr, ptr, ptr, ptr, ptr, ptr }
%struct.anon = type { i64, [32 x i8], [32 x i8], ptr, ptr, i32, i32, i32, i32, [2 x i8], i32, i32, i32, i32, %struct.anon.0, [64 x i8], i64, [64 x i8], i64, i32, i32, ptr, i64, ptr, i64, i32, i8, i8, i16, ptr, i16 }
%struct.anon.0 = type { [128 x i8], i64, [128 x i8], i64, i64, i32, ptr, ptr, [4 x ptr], [4 x i16], i64, i32, ptr, i64, ptr, i64, ptr, ptr, ptr, i32, i64, ptr, i32, ptr, i64, ptr, i64, ptr, i64, ptr, ptr, ptr, ptr, i64, i64, ptr, ptr, i32, i32, i32, i32 }
%struct.ssl_dane_st = type { ptr, ptr, ptr, ptr, ptr, i32, i32, i32, i64 }
%struct.anon.1 = type { [29 x i8], ptr, ptr, ptr, i32, ptr, i16, i32, %struct.anon.2, i32, i32, i64, ptr, i64, ptr, i64, ptr, i64, ptr, i64, ptr, i64, ptr, ptr, ptr, ptr, ptr, ptr, ptr, i64, ptr, i64, i32, i32, i32, i32, ptr, i64, i32, i8, i32, [4 x i32], i32, i8, i8, i8, i8 }
%struct.anon.2 = type { ptr, ptr, ptr, i64 }
%struct.srp_ctx_st = type { ptr, ptr, ptr, ptr, ptr, ptr, ptr, ptr, ptr, ptr, ptr, ptr, ptr, ptr, i32, i64 }
%struct.record_layer_st = type { ptr, ptr, ptr, ptr, ptr, ptr, ptr, ptr, i64, i32, i64, [4 x i8], i64, i64, i8, ptr, i32, ptr, ptr, ptr, i64, i64, i64, i64, [32 x %struct.tls_record_st] }
%struct.tls_record_st = type { ptr, i32, i8, ptr, ptr, i64, i64, i16, [8 x i8] }
%struct.ossl_record_method_st = type { ptr, ptr, ptr, ptr, ptr, ptr, ptr, ptr, ptr, ptr, ptr, ptr, ptr, ptr, ptr, ptr, ptr, ptr, ptr, ptr, ptr, ptr, ptr, ptr, ptr }

; Function Attrs: nounwind uwtable
define i32 @SSL_alloc_buffers(ptr noundef %0) #0 {
  %2 = alloca i32, align 4
  %3 = alloca ptr, align 8
  %4 = alloca ptr, align 8
  %5 = alloca ptr, align 8
  %6 = alloca i32, align 4
  store ptr %0, ptr %3, align 8, !tbaa !16
  call void @llvm.lifetime.start.p0(i64 8, ptr %4) #9
  call void @llvm.lifetime.start.p0(i64 8, ptr %5) #9
  %7 = load ptr, ptr %3, align 8, !tbaa !16
  %8 = icmp eq ptr %7, null
  br i1 %8, label %9, label %10

9:                                                ; preds = %1
  br label %31

10:                                               ; preds = %1
  %11 = load ptr, ptr %3, align 8, !tbaa !16
  %12 = getelementptr inbounds nuw %struct.ssl_st, ptr %11, i32 0, i32 0
  %13 = load i32, ptr %12, align 8, !tbaa !29
  %14 = icmp eq i32 %13, 0
  br i1 %14, label %15, label %17

15:                                               ; preds = %10
  %16 = load ptr, ptr %3, align 8, !tbaa !16
  br label %29

17:                                               ; preds = %10
  %18 = load ptr, ptr %3, align 8, !tbaa !16
  %19 = getelementptr inbounds nuw %struct.ssl_st, ptr %18, i32 0, i32 0
  %20 = load i32, ptr %19, align 8, !tbaa !29
  %21 = and i32 %20, 128
  %22 = icmp ne i32 %21, 0
  br i1 %22, label %23, label %26

23:                                               ; preds = %17
  %24 = load ptr, ptr %3, align 8, !tbaa !16
  %25 = call ptr @ossl_quic_obj_get0_handshake_layer(ptr noundef %24)
  br label %27

26:                                               ; preds = %17
  br label %27

27:                                               ; preds = %26, %23
  %28 = phi ptr [ %25, %23 ], [ null, %26 ]
  br label %29

29:                                               ; preds = %27, %15
  %30 = phi ptr [ %16, %15 ], [ %28, %27 ]
  br label %31

31:                                               ; preds = %29, %9
  %32 = phi ptr [ null, %9 ], [ %30, %29 ]
  store ptr %32, ptr %5, align 8, !tbaa !3
  %33 = load ptr, ptr %5, align 8, !tbaa !3
  %34 = icmp eq ptr %33, null
  br i1 %34, label %35, label %36

35:                                               ; preds = %31
  store i32 0, ptr %2, align 4
  store i32 1, ptr %6, align 4
  br label %73

36:                                               ; preds = %31
  %37 = load ptr, ptr %3, align 8, !tbaa !16
  %38 = icmp ne ptr %37, null
  br i1 %38, label %39, label %46

39:                                               ; preds = %36
  %40 = load ptr, ptr %3, align 8, !tbaa !16
  %41 = getelementptr inbounds nuw %struct.ssl_st, ptr %40, i32 0, i32 0
  %42 = load i32, ptr %41, align 8, !tbaa !29
  %43 = and i32 %42, 128
  %44 = icmp ne i32 %43, 0
  br i1 %44, label %45, label %46

45:                                               ; preds = %39
  store i32 1, ptr %2, align 4
  store i32 1, ptr %6, align 4
  br label %73

46:                                               ; preds = %39, %36
  %47 = load ptr, ptr %5, align 8, !tbaa !3
  %48 = getelementptr inbounds nuw %struct.ssl_connection_st, ptr %47, i32 0, i32 104
  store ptr %48, ptr %4, align 8, !tbaa !584
  %49 = load ptr, ptr %4, align 8, !tbaa !584
  %50 = getelementptr inbounds nuw %struct.record_layer_st, ptr %49, i32 0, i32 3
  %51 = load ptr, ptr %50, align 8, !tbaa !586
  %52 = getelementptr inbounds nuw %struct.ossl_record_method_st, ptr %51, i32 0, i32 23
  %53 = load ptr, ptr %52, align 8, !tbaa !591
  %54 = load ptr, ptr %4, align 8, !tbaa !584
  %55 = getelementptr inbounds nuw %struct.record_layer_st, ptr %54, i32 0, i32 5
  %56 = load ptr, ptr %55, align 8, !tbaa !588
  %57 = call i32 %53(ptr noundef %56)
  %58 = icmp ne i32 %57, 0
  br i1 %58, label %59, label %70

59:                                               ; preds = %46
  %60 = load ptr, ptr %4, align 8, !tbaa !584
  %61 = getelementptr inbounds nuw %struct.record_layer_st, ptr %60, i32 0, i32 4
  %62 = load ptr, ptr %61, align 8, !tbaa !589
  %63 = getelementptr inbounds nuw %struct.ossl_record_method_st, ptr %62, i32 0, i32 23
  %64 = load ptr, ptr %63, align 8, !tbaa !591
  %65 = load ptr, ptr %4, align 8, !tbaa !584
  %66 = getelementptr inbounds nuw %struct.record_layer_st, ptr %65, i32 0, i32 6
  %67 = load ptr, ptr %66, align 8, !tbaa !590
  %68 = call i32 %64(ptr noundef %67)
  %69 = icmp ne i32 %68, 0
  br label %70

70:                                               ; preds = %59, %46
  %71 = phi i1 [ false, %46 ], [ %69, %59 ]
  %72 = zext i1 %71 to i32
  store i32 %72, ptr %2, align 4
  store i32 1, ptr %6, align 4
  br label %73

73:                                               ; preds = %70, %45, %35
  call void @llvm.lifetime.end.p0(i64 8, ptr %5) #9
  call void @llvm.lifetime.end.p0(i64 8, ptr %4) #9
  %74 = load i32, ptr %2, align 4
  ret i32 %74
}