; Function Attrs: nounwind uwtable
define range(i32 0, 2) i32 @SSL_alloc_buffers(ptr noundef %0) local_unnamed_addr #0 {
  %2 = icmp eq ptr %0, null
  br i1 %2, label %.thread, label %3

3:                                                ; preds = %1
  %4 = load i32, ptr %0, align 8, !tbaa !19
  %5 = icmp eq i32 %4, 0
  br i1 %5, label %.thread19.thread, label %6

6:                                                ; preds = %3
  %7 = and i32 %4, 128
  %.not = icmp eq i32 %7, 0
  br i1 %.not, label %.thread, label %8

8:                                                ; preds = %6
  %9 = tail call ptr @ossl_quic_obj_get0_handshake_layer(ptr noundef nonnull %0) #20
  %10 = icmp eq ptr %9, null
  br i1 %10, label %.thread, label %.thread19

.thread19:                                        ; preds = %8
  %.pre = load i32, ptr %0, align 8, !tbaa !19
  %11 = and i32 %.pre, 128
  %12 = icmp eq i32 %11, 0
  br i1 %12, label %.thread19.thread, label %.thread

.thread19.thread:                                 ; preds = %3, %.thread19
  %13 = phi ptr [ %9, %.thread19 ], [ %0, %3 ]
  %14 = getelementptr inbounds nuw i8, ptr %13, i64 3184
  %15 = load ptr, ptr %14, align 8, !tbaa !511
  %16 = getelementptr inbounds nuw i8, ptr %15, i64 184
  %17 = load ptr, ptr %16, align 8, !tbaa !516
  %18 = getelementptr inbounds nuw i8, ptr %13, i64 3200
  %19 = load ptr, ptr %18, align 8, !tbaa !513
  %20 = tail call i32 %17(ptr noundef %19) #20
  %.not18 = icmp eq i32 %20, 0
  br i1 %.not18, label %.thread, label %21

21:                                               ; preds = %.thread19.thread
  %22 = getelementptr inbounds nuw i8, ptr %13, i64 3192
  %23 = load ptr, ptr %22, align 8, !tbaa !514
  %24 = getelementptr inbounds nuw i8, ptr %23, i64 184
  %25 = load ptr, ptr %24, align 8, !tbaa !516
  %26 = getelementptr inbounds nuw i8, ptr %13, i64 3208
  %27 = load ptr, ptr %26, align 8, !tbaa !515
  %28 = tail call i32 %25(ptr noundef %27) #20
  %29 = icmp ne i32 %28, 0
  %30 = zext i1 %29 to i32
  br label %.thread

.thread:                                          ; preds = %6, %1, %.thread19.thread, %21, %.thread19, %8
  %.0 = phi i32 [ 0, %8 ], [ 1, %.thread19 ], [ 0, %.thread19.thread ], [ %30, %21 ], [ 0, %1 ], [ 0, %6 ]
  ret i32 %.0
}